target datalayout = "e-m:e-p270:32:32-p271:32:32-p272:64:64-i64:64-i128:128-f80:128-n8:16:32:64-S128"
target triple = "x86_64-pc-linux-gnu"

%"class.ZXing::Pdf417::BoundingBox" = type { i32, i32, %"class.ZXing::Nullable", %"class.ZXing::Nullable", %"class.ZXing::Nullable", %"class.ZXing::Nullable", i32, i32, i32, i32 }
%"class.ZXing::Nullable" = type { i8, %"class.ZXing::ResultPoint" }
%"class.ZXing::ResultPoint" = type { %"struct.ZXing::PointT" }
%"struct.ZXing::PointT" = type { double, double }

; Function Attrs: inlinehint mustprogress nounwind uwtable
define linkonce_odr noundef zeroext i1 @_ZN5ZXingneERKNS_8NullableINS_11ResultPointEEEDn(ptr noundef nonnull align 8 dereferenceable(24) %0, ptr %1) #2 comdat {
  %3 = alloca ptr, align 8
  %4 = alloca ptr, align 8
  store ptr %0, ptr %3, align 8, !tbaa !21
  store ptr %1, ptr %4, align 8, !tbaa !25
  %5 = load ptr, ptr %3, align 8, !tbaa !21
  %6 = getelementptr inbounds nuw %"class.ZXing::Nullable", ptr %5, i32 0, i32 0
  %7 = load i8, ptr %6, align 8, !tbaa !23, !range !27, !noundef !28
  %8 = trunc i8 %7 to i1
  ret i1 %8
}

; Function Attrs: inlinehint mustprogress nounwind uwtable
define linkonce_odr noundef zeroext i1 @_ZN5ZXingeqERKNS_8NullableINS_11ResultPointEEEDn(ptr noundef nonnull align 8 dereferenceable(24) %0, ptr %1) #2 comdat {
  %3 = alloca ptr, align 8
  %4 = alloca ptr, align 8
  store ptr %0, ptr %3, align 8, !tbaa !21
  store ptr %1, ptr %4, align 8, !tbaa !25
  %5 = load ptr, ptr %3, align 8, !tbaa !21
  %6 = getelementptr inbounds nuw %"class.ZXing::Nullable", ptr %5, i32 0, i32 0
  %7 = load i8, ptr %6, align 8, !tbaa !23, !range !27, !noundef !28
  %8 = trunc i8 %7 to i1
  %9 = xor i1 %8, true
  ret i1 %9
}

; Function Attrs: mustprogress uwtable
define noundef zeroext i1 @_ZN5ZXing6Pdf41711BoundingBox6CreateEiiRKNS_8NullableINS_11ResultPointEEES6_S6_S6_RS1_(i32 noundef %0, i32 noundef %1, ptr noundef nonnull align 8 dereferenceable(24) %2, ptr noundef nonnull align 8 dereferenceable(24) %3, ptr noundef nonnull align 8 dereferenceable(24) %4, ptr noundef nonnull align 8 dereferenceable(24) %5, ptr noundef nonnull align 8 dereferenceable(120) %6) #1 align 2 {
  %8 = alloca i1, align 1
  %9 = alloca i32, align 4
  %10 = alloca i32, align 4
  %11 = alloca ptr, align 8
  %12 = alloca ptr, align 8
  %13 = alloca ptr, align 8
  %14 = alloca ptr, align 8
  %15 = alloca ptr, align 8
  store i32 %0, ptr %9, align 4, !tbaa !24
  store i32 %1, ptr %10, align 4, !tbaa !24
  store ptr %2, ptr %11, align 8, !tbaa !21
  store ptr %3, ptr %12, align 8, !tbaa !21
  store ptr %4, ptr %13, align 8, !tbaa !21
  store ptr %5, ptr %14, align 8, !tbaa !21
  store ptr %6, ptr %15, align 8, !tbaa !3
  %16 = load ptr, ptr %11, align 8, !tbaa !21
  %17 = call noundef zeroext i1 @_ZN5ZXingeqERKNS_8NullableINS_11ResultPointEEEDn(ptr noundef nonnull align 8 dereferenceable(24) %16, ptr null)
  br i1 %17, label %18, label %21

18:                                               ; preds = %7
  %19 = load ptr, ptr %13, align 8, !tbaa !21
  %20 = call noundef zeroext i1 @_ZN5ZXingeqERKNS_8NullableINS_11ResultPointEEEDn(ptr noundef nonnull align 8 dereferenceable(24) %19, ptr null)
  br i1 %20, label %39, label %21

21:                                               ; preds = %18, %7
  %22 = load ptr, ptr %12, align 8, !tbaa !21
  %23 = call noundef zeroext i1 @_ZN5ZXingeqERKNS_8NullableINS_11ResultPointEEEDn(ptr noundef nonnull align 8 dereferenceable(24) %22, ptr null)
  br i1 %23, label %24, label %27

24:                                               ; preds = %21
  %25 = load ptr, ptr %14, align 8, !tbaa !21
  %26 = call noundef zeroext i1 @_ZN5ZXingeqERKNS_8NullableINS_11ResultPointEEEDn(ptr noundef nonnull align 8 dereferenceable(24) %25, ptr null)
  br i1 %26, label %39, label %27

27:                                               ; preds = %24, %21
  %28 = load ptr, ptr %11, align 8, !tbaa !21
  %29 = call noundef zeroext i1 @_ZN5ZXingneERKNS_8NullableINS_11ResultPointEEEDn(ptr noundef nonnull align 8 dereferenceable(24) %28, ptr null)
  br i1 %29, label %30, label %33

30:                                               ; preds = %27
  %31 = load ptr, ptr %12, align 8, !tbaa !21
  %32 = call noundef zeroext i1 @_ZN5ZXingeqERKNS_8NullableINS_11ResultPointEEEDn(ptr noundef nonnull align 8 dereferenceable(24) %31, ptr null)
  br i1 %32, label %39, label %33

33:                                               ; preds = %30, %27
  %34 = load ptr, ptr %13, align 8, !tbaa !21
  %35 = call noundef zeroext i1 @_ZN5ZXingneERKNS_8NullableINS_11ResultPointEEEDn(ptr noundef nonnull align 8 dereferenceable(24) %34, ptr null)
  br i1 %35, label %36, label %40

36:                                               ; preds = %33
  %37 = load ptr, ptr %14, align 8, !tbaa !21
  %38 = call noundef zeroext i1 @_ZN5ZXingeqERKNS_8NullableINS_11ResultPointEEEDn(ptr noundef nonnull align 8 dereferenceable(24) %37, ptr null)
  br i1 %38, label %39, label %40

39:                                               ; preds = %36, %30, %24, %18
  store i1 false, ptr %8, align 1
  br label %60

40:                                               ; preds = %36, %33
  %41 = load i32, ptr %9, align 4, !tbaa !24
  %42 = load ptr, ptr %15, align 8, !tbaa !3
  %43 = getelementptr inbounds nuw %"class.ZXing::Pdf417::BoundingBox", ptr %42, i32 0, i32 0
  store i32 %41, ptr %43, align 8, !tbaa !20
  %44 = load i32, ptr %10, align 4, !tbaa !24
  %45 = load ptr, ptr %15, align 8, !tbaa !3
  %46 = getelementptr inbounds nuw %"class.ZXing::Pdf417::BoundingBox", ptr %45, i32 0, i32 1
  store i32 %44, ptr %46, align 4, !tbaa !19
  %47 = load ptr, ptr %11, align 8, !tbaa !21
  %48 = load ptr, ptr %15, align 8, !tbaa !3
  %49 = getelementptr inbounds nuw %"class.ZXing::Pdf417::BoundingBox", ptr %48, i32 0, i32 2
  call void @llvm.memcpy.p0.p0.i64(ptr align 8 %49, ptr align 8 %47, i64 24, i1 false)
  %50 = load ptr, ptr %12, align 8, !tbaa !21
  %51 = load ptr, ptr %15, align 8, !tbaa !3
  %52 = getelementptr inbounds nuw %"class.ZXing::Pdf417::BoundingBox", ptr %51, i32 0, i32 3
  call void @llvm.memcpy.p0.p0.i64(ptr align 8 %52, ptr align 8 %50, i64 24, i1 false)
  %53 = load ptr, ptr %13, align 8, !tbaa !21
  %54 = load ptr, ptr %15, align 8, !tbaa !3
  %55 = getelementptr inbounds nuw %"class.ZXing::Pdf417::BoundingBox", ptr %54, i32 0, i32 4
  call void @llvm.memcpy.p0.p0.i64(ptr align 8 %55, ptr align 8 %53, i64 24, i1 false)
  %56 = load ptr, ptr %14, align 8, !tbaa !21
  %57 = load ptr, ptr %15, align 8, !tbaa !3
  %58 = getelementptr inbounds nuw %"class.ZXing::Pdf417::BoundingBox", ptr %57, i32 0, i32 5
  call void @llvm.memcpy.p0.p0.i64(ptr align 8 %58, ptr align 8 %56, i64 24, i1 false)
  %59 = load ptr, ptr %15, align 8, !tbaa !3
  call void @_ZN5ZXing6Pdf41711BoundingBox21calculateMinMaxValuesEv(ptr noundef nonnull align 8 dereferenceable(120) %59)
  store i1 true, ptr %8, align 1
  br label %60

60:                                               ; preds = %40, %39
  %61 = load i1, ptr %8, align 1
  ret i1 %61
}