; Function Attrs: mustprogress nofree norecurse nosync nounwind willreturn memory(argmem: readwrite) uwtable
define noundef zeroext i1 @_ZN5ZXing6Pdf41711BoundingBox6CreateEiiRKNS_8NullableINS_11ResultPointEEES6_S6_S6_RS1_(i32 noundef %0, i32 noundef %1, ptr noundef nonnull readonly align 8 captures(none) dereferenceable(24) %2, ptr noundef nonnull readonly align 8 captures(none) dereferenceable(24) %3, ptr noundef nonnull readonly align 8 captures(none) dereferenceable(24) %4, ptr noundef nonnull readonly align 8 captures(none) dereferenceable(24) %5, ptr noundef nonnull align 8 captures(none) dereferenceable(120) %6) local_unnamed_addr #1 align 2 {
  %8 = load i8, ptr %2, align 8, !tbaa !3, !range !11, !noundef !12
  %9 = trunc nuw i8 %8 to i1
  br i1 %9, label %13, label %10

10:                                               ; preds = %7
  %11 = load i8, ptr %4, align 8, !tbaa !3, !range !11, !noundef !12
  %12 = trunc nuw i8 %11 to i1
  br i1 %12, label %.thread22, label %26

13:                                               ; preds = %7
  %14 = load i8, ptr %3, align 8, !tbaa !3, !range !11, !noundef !12
  %15 = trunc nuw i8 %14 to i1
  br i1 %15, label %..thread21_crit_edge, label %26

..thread21_crit_edge:                             ; preds = %13
  %.pre = load i8, ptr %4, align 8, !tbaa !3, !range !11
  %.pre30 = load i8, ptr %5, align 8, !range !11
  %.pre31 = trunc nuw i8 %.pre to i1
  %.pre32 = trunc nuw i8 %.pre30 to i1
  %16 = xor i1 %.pre31, true
  %17 = select i1 %16, i1 true, i1 %.pre32
  br i1 %17, label %20, label %26

.thread22:                                        ; preds = %10
  %18 = load i8, ptr %5, align 8, !range !11
  %19 = trunc nuw i8 %18 to i1
  br i1 %19, label %20, label %26

20:                                               ; preds = %.thread22, %..thread21_crit_edge
  store i32 %0, ptr %6, align 8, !tbaa !13
  %21 = getelementptr inbounds nuw i8, ptr %6, i64 4
  store i32 %1, ptr %21, align 4, !tbaa !16
  %22 = getelementptr inbounds nuw i8, ptr %6, i64 8
  tail call void @llvm.memcpy.p0.p0.i64(ptr noundef nonnull align 8 dereferenceable(24) %22, ptr noundef nonnull align 8 dereferenceable(24) %2, i64 24, i1 false)
  %23 = getelementptr inbounds nuw i8, ptr %6, i64 32
  tail call void @llvm.memcpy.p0.p0.i64(ptr noundef nonnull align 8 dereferenceable(24) %23, ptr noundef nonnull align 8 dereferenceable(24) %3, i64 24, i1 false)
  %24 = getelementptr inbounds nuw i8, ptr %6, i64 56
  tail call void @llvm.memcpy.p0.p0.i64(ptr noundef nonnull align 8 dereferenceable(24) %24, ptr noundef nonnull align 8 dereferenceable(24) %4, i64 24, i1 false)
  %25 = getelementptr inbounds nuw i8, ptr %6, i64 80
  tail call void @llvm.memcpy.p0.p0.i64(ptr noundef nonnull align 8 dereferenceable(24) %25, ptr noundef nonnull align 8 dereferenceable(24) %5, i64 24, i1 false)
  tail call void @_ZN5ZXing6Pdf41711BoundingBox21calculateMinMaxValuesEv(ptr noundef nonnull align 8 dereferenceable(120) %6)
  br label %26

26:                                               ; preds = %.thread22, %..thread21_crit_edge, %13, %10, %20
  %.0 = phi i1 [ true, %20 ], [ false, %10 ], [ false, %.thread22 ], [ false, %13 ], [ false, %..thread21_crit_edge ]
  ret i1 %.0
}